; Function Attrs: nounwind uwtable
define dso_local double @dictIncrDoubleVal(ptr noundef %0, double noundef %1) local_unnamed_addr #3 {
  %3 = ptrtoint ptr %0 to i64
  %4 = and i64 %3, 7
  %.not = icmp eq i64 %4, 0
  br i1 %.not, label %6, label %5, !prof !25

5:                                                ; preds = %2
  tail call void @_serverAssert(ptr noundef nonnull @.str.9, ptr noundef nonnull @.str.1, i32 noundef 913) #25
  tail call void @abort() #27
  unreachable

6:                                                ; preds = %2
  %7 = getelementptr inbounds nuw i8, ptr %0, i64 8
  %8 = load double, ptr %7, align 8, !tbaa !13
  %9 = fadd double %1, %8
  store double %9, ptr %7, align 8, !tbaa !13
  ret double %9
}